target datalayout = "e-m:e-p270:32:32-p271:32:32-p272:64:64-i64:64-i128:128-f80:128-n8:16:32:64-S128"
target triple = "x86_64-pc-linux-gnu"

%struct.IDAMemRec = type { ptr, double, ptr, ptr, i32, double, double, ptr, i32, i32, ptr, ptr, i32, i32, [6 x ptr], [6 x double], [6 x double], [6 x double], [6 x double], [6 x double], ptr, ptr, ptr, ptr, ptr, ptr, ptr, ptr, ptr, ptr, ptr, ptr, ptr, ptr, ptr, ptr, ptr, double, ptr, ptr, i32, i32, i32, i32, i32, i32, i32, i32, double, double, double, i32, double, i32, i32, i32, i32, i32, double, double, double, double, double, double, double, double, double, double, double, double, double, double, double, double, i32, i32, i32, i32, i64, double, double, double, double, double, double, double, double, double, i64, i64, i64, i64, i64, i64, i64, i64, i64, i64, i64, double, i32, i32, i32, i32, i32, ptr, i32, ptr, ptr, ptr, ptr, ptr, ptr, ptr, double, i32, ptr, i32, ptr, ptr, double, double, double, ptr, ptr, ptr, double, double, i32, i32, i64, ptr, i32, [6 x double], [5 x double], [6 x ptr], [6 x ptr] }

@.str = private unnamed_addr constant [113 x i8] c"generated/home/dtcxzyw/WorkSpace/Projects/compilers/llvm-opt-benchmark/bench/sundials/sundials/src/ida/ida_nls.c\00", align 1
@__func__.idaNlsInit = private unnamed_addr constant [11 x i8] c"idaNlsInit\00", align 1
@.str.9 = private unnamed_addr constant [48 x i8] c"Setting the linear solver setup function failed\00", align 1
@.str.10 = private unnamed_addr constant [44 x i8] c"Setting linear solver solve function failed\00", align 1
@.str.11 = private unnamed_addr constant [44 x i8] c"The nonlinear solver's init routine failed.\00", align 1

; Function Attrs: nounwind uwtable
define i32 @idaNlsInit(ptr noundef %0) #0 {
  %2 = alloca i32, align 4
  %3 = alloca ptr, align 8
  %4 = alloca i32, align 4
  %5 = alloca i32, align 4
  store ptr %0, ptr %3, align 8, !tbaa !9
  call void @llvm.lifetime.start.p0(i64 4, ptr %4) #3
  %6 = load ptr, ptr %3, align 8, !tbaa !9
  %7 = getelementptr inbounds nuw %struct.IDAMemRec, ptr %6, i32 0, i32 109
  %8 = load ptr, ptr %7, align 8, !tbaa !48
  %9 = icmp ne ptr %8, null
  br i1 %9, label %10, label %15

10:                                               ; preds = %1
  %11 = load ptr, ptr %3, align 8, !tbaa !9
  %12 = getelementptr inbounds nuw %struct.IDAMemRec, ptr %11, i32 0, i32 105
  %13 = load ptr, ptr %12, align 8, !tbaa !19
  %14 = call i32 @SUNNonlinSolSetLSetupFn(ptr noundef %13, ptr noundef @idaNlsLSetup)
  store i32 %14, ptr %4, align 4, !tbaa !28
  br label %20

15:                                               ; preds = %1
  %16 = load ptr, ptr %3, align 8, !tbaa !9
  %17 = getelementptr inbounds nuw %struct.IDAMemRec, ptr %16, i32 0, i32 105
  %18 = load ptr, ptr %17, align 8, !tbaa !19
  %19 = call i32 @SUNNonlinSolSetLSetupFn(ptr noundef %18, ptr noundef null)
  store i32 %19, ptr %4, align 4, !tbaa !28
  br label %20

20:                                               ; preds = %15, %10
  %21 = load i32, ptr %4, align 4, !tbaa !28
  %22 = icmp ne i32 %21, 0
  br i1 %22, label %23, label %25

23:                                               ; preds = %20
  %24 = load ptr, ptr %3, align 8, !tbaa !9
  call void (ptr, i32, i32, ptr, ptr, ptr, ...) @IDAProcessError(ptr noundef %24, i32 noundef -22, i32 noundef 204, ptr noundef @__func__.idaNlsInit, ptr noundef @.str, ptr noundef @.str.9)
  store i32 -15, ptr %2, align 4
  store i32 1, ptr %5, align 4
  br label %55

25:                                               ; preds = %20
  %26 = load ptr, ptr %3, align 8, !tbaa !9
  %27 = getelementptr inbounds nuw %struct.IDAMemRec, ptr %26, i32 0, i32 110
  %28 = load ptr, ptr %27, align 8, !tbaa !49
  %29 = icmp ne ptr %28, null
  br i1 %29, label %30, label %35

30:                                               ; preds = %25
  %31 = load ptr, ptr %3, align 8, !tbaa !9
  %32 = getelementptr inbounds nuw %struct.IDAMemRec, ptr %31, i32 0, i32 105
  %33 = load ptr, ptr %32, align 8, !tbaa !19
  %34 = call i32 @SUNNonlinSolSetLSolveFn(ptr noundef %33, ptr noundef @idaNlsLSolve)
  store i32 %34, ptr %4, align 4, !tbaa !28
  br label %40

35:                                               ; preds = %25
  %36 = load ptr, ptr %3, align 8, !tbaa !9
  %37 = getelementptr inbounds nuw %struct.IDAMemRec, ptr %36, i32 0, i32 105
  %38 = load ptr, ptr %37, align 8, !tbaa !19
  %39 = call i32 @SUNNonlinSolSetLSolveFn(ptr noundef %38, ptr noundef null)
  store i32 %39, ptr %4, align 4, !tbaa !28
  br label %40

40:                                               ; preds = %35, %30
  %41 = load i32, ptr %4, align 4, !tbaa !28
  %42 = icmp ne i32 %41, 0
  br i1 %42, label %43, label %45

43:                                               ; preds = %40
  %44 = load ptr, ptr %3, align 8, !tbaa !9
  call void (ptr, i32, i32, ptr, ptr, ptr, ...) @IDAProcessError(ptr noundef %44, i32 noundef -22, i32 noundef 218, ptr noundef @__func__.idaNlsInit, ptr noundef @.str, ptr noundef @.str.10)
  store i32 -15, ptr %2, align 4
  store i32 1, ptr %5, align 4
  br label %55

45:                                               ; preds = %40
  %46 = load ptr, ptr %3, align 8, !tbaa !9
  %47 = getelementptr inbounds nuw %struct.IDAMemRec, ptr %46, i32 0, i32 105
  %48 = load ptr, ptr %47, align 8, !tbaa !19
  %49 = call i32 @SUNNonlinSolInitialize(ptr noundef %48)
  store i32 %49, ptr %4, align 4, !tbaa !28
  %50 = load i32, ptr %4, align 4, !tbaa !28
  %51 = icmp ne i32 %50, 0
  br i1 %51, label %52, label %54

52:                                               ; preds = %45
  %53 = load ptr, ptr %3, align 8, !tbaa !9
  call void (ptr, i32, i32, ptr, ptr, ptr, ...) @IDAProcessError(ptr noundef %53, i32 noundef -22, i32 noundef 228, ptr noundef @__func__.idaNlsInit, ptr noundef @.str, ptr noundef @.str.11)
  store i32 -15, ptr %2, align 4
  store i32 1, ptr %5, align 4
  br label %55

54:                                               ; preds = %45
  store i32 0, ptr %2, align 4
  store i32 1, ptr %5, align 4
  br label %55

55:                                               ; preds = %54, %52, %43, %23
  call void @llvm.lifetime.end.p0(i64 4, ptr %4) #3
  %56 = load i32, ptr %2, align 4
  ret i32 %56
}